target datalayout = "e-m:e-p270:32:32-p271:32:32-p272:64:64-i64:64-i128:128-f80:128-n8:16:32:64-S128"
target triple = "x86_64-pc-linux-gnu"

%struct.MD5_params = type { ptr, ptr, ptr, i32, i32 }
%struct.connectdata = type { %struct.Curl_llist_node, ptr, ptr, i64, ptr, i64, ptr, ptr, %struct.hostname, ptr, ptr, %struct.hostname, %struct.proxy_info, %struct.proxy_info, %struct.ip_quadruple, %struct.ip_quadruple, ptr, ptr, ptr, ptr, ptr, %struct.curltime, %struct.curltime, %struct.curltime, [2 x i32], [2 x ptr], [2 x ptr], [2 x ptr], %struct.anon, %struct.easy_pollset, %struct.ssl_primary_config, %struct.ssl_primary_config, %struct.ConnectBits, ptr, ptr, %struct.curltime, i32, i32, %struct.Curl_llist, i32, i32, %struct.ntlmdata, %struct.ntlmdata, %union.anon.1, ptr, ptr, i16, i32, i32, i32, i32, i16, i16, i8, i8, i8, i8, i8, i8, i8 }
%struct.Curl_llist_node = type { ptr, ptr, ptr, ptr }
%struct.hostname = type { ptr, ptr, ptr, ptr }
%struct.proxy_info = type { %struct.hostname, i32, i8, ptr, ptr }
%struct.ip_quadruple = type { [46 x i8], [46 x i8], i32, i32 }
%struct.anon = type { [2 x %struct.curltime], i32 }
%struct.easy_pollset = type { [5 x i32], i32, [5 x i8] }
%struct.ssl_primary_config = type { ptr, ptr, ptr, ptr, ptr, ptr, ptr, ptr, ptr, ptr, ptr, ptr, ptr, ptr, i8, i32, i8, i8 }
%struct.ConnectBits = type { i64 }
%struct.curltime = type { i64, i32 }
%struct.Curl_llist = type { ptr, ptr, ptr, i64 }
%struct.ntlmdata = type { i32, [8 x i8], i32, ptr }
%union.anon.1 = type { %struct.ftp_conn }
%struct.ftp_conn = type { %struct.pingpong, ptr, ptr, ptr, ptr, ptr, ptr, ptr, i8, i64, ptr, i64, i32, i32, i32, i32, i32, i16, i8, i8, i8, i8, i8 }
%struct.pingpong = type { i64, i8, ptr, i64, i64, %struct.curltime, i64, %struct.dynbuf, %struct.dynbuf, i64, i64, ptr, ptr }
%struct.dynbuf = type { ptr, i64, i64, i64 }
%struct.Curl_easy = type { i32, i64, i64, ptr, %struct.Curl_llist_node, %struct.Curl_llist_node, i32, i32, %struct.Curl_message, %struct.easy_pollset, %struct.Names, ptr, ptr, ptr, ptr, %struct.SingleRequest, %struct.UserDefined, ptr, ptr, ptr, %struct.Progress, %struct.UrlState, ptr, %struct.PureInfo, %struct.curl_tlssessioninfo }
%struct.Curl_message = type { %struct.Curl_llist_node, %struct.CURLMsg }
%struct.CURLMsg = type { i32, ptr, %union.anon }
%union.anon = type { ptr }
%struct.Names = type { ptr, i32 }
%struct.SingleRequest = type <{ i64, i64, i64, i64, %struct.curltime, i32, i32, i32, i32, i64, i32, i32, i8, i8, [2 x i8], i32, ptr, ptr, %struct.bufq, i64, i64, ptr, ptr, %union.anon.0, ptr, i8, i32, [3 x i8] }>
%struct.bufq = type { ptr, ptr, ptr, ptr, i64, i64, i64, i32 }
%union.anon.0 = type { ptr }
%struct.UserDefined = type <{ ptr, ptr, ptr, ptr, ptr, ptr, i64, i64, i64, ptr, ptr, i64, ptr, ptr, ptr, ptr, ptr, ptr, ptr, ptr, ptr, ptr, ptr, ptr, ptr, ptr, ptr, ptr, ptr, ptr, ptr, ptr, ptr, ptr, ptr, i64, i64, i64, i64, i64, i64, i64, i64, i64, ptr, ptr, %struct.curl_mimepart, ptr, ptr, ptr, i64, %struct.ssl_config_data, %struct.ssl_config_data, ptr, i16, i8, i8, %struct.ssl_general_config, i32, i32, i32, [4 x i8], ptr, ptr, i64, i32, i8, i8, i8, i8, ptr, ptr, ptr, i32, [4 x i8], [74 x ptr], [8 x ptr], i32, i32, i32, [4 x i8], ptr, i32, [4 x i8], ptr, ptr, ptr, ptr, ptr, i32, i32, i32, i32, i32, i32, i32, i32, i64, ptr, ptr, i64, ptr, i64, ptr, ptr, ptr, ptr, i32, i16, i16, i16, i8, i8, i8, i8, i8, i8, i8, i8, i64, [6 x i8] }>
%struct.curl_mimepart = type { ptr, ptr, i32, i32, ptr, ptr, ptr, ptr, ptr, ptr, ptr, ptr, ptr, ptr, ptr, i64, %struct.mime_state, ptr, %struct.mime_encoder_state, i64 }
%struct.mime_state = type { i32, ptr, i64 }
%struct.mime_encoder_state = type { i64, i64, i64, [256 x i8] }
%struct.ssl_config_data = type { %struct.ssl_primary_config, i64, ptr, ptr, ptr, ptr, ptr, ptr, ptr, i16 }
%struct.ssl_general_config = type { i32 }
%struct.Progress = type { i64, %struct.pgrs_dir, %struct.pgrs_dir, i64, i64, i32, i32, i64, i64, i64, i64, i64, i64, i64, i64, i64, %struct.curltime, %struct.curltime, %struct.curltime, %struct.curltime, %struct.curltime, [6 x i64], [6 x %struct.curltime], i32, i8 }
%struct.pgrs_dir = type { i64, i64, i64, %struct.pgrs_measure }
%struct.pgrs_measure = type { %struct.curltime, i64 }
%struct.UrlState = type { %struct.curltime, i64, i64, %struct.dynbuf, ptr, i64, ptr, i32, i32, i32, ptr, i32, i64, i32, ptr, %struct.digestdata, %struct.digestdata, %struct.auth, %struct.auth, %struct.Curl_async, ptr, i8, %struct.curltime, %struct.Curl_tree, %struct.Curl_llist, [15 x %struct.time_node], ptr, ptr, i64, i64, i64, i64, [32 x i8], i64, ptr, ptr, ptr, %struct.urlpieces, ptr, ptr, ptr, ptr, ptr, i64, %struct.dynbuf, %struct.Curl_llist, [2 x %struct.curl_header], ptr, i32, ptr, ptr, %struct.store_netrc, %struct.dynamically_allocated_data, i8, i8, i8, i8, i32 }
%struct.digestdata = type { ptr, ptr, ptr, ptr, ptr, ptr, i32, i8, i8 }
%struct.auth = type { i64, i64, i64, i8 }
%struct.Curl_async = type { ptr, ptr, ptr, ptr, i32, i32, i8 }
%struct.Curl_tree = type { ptr, ptr, ptr, ptr, %struct.curltime, ptr }
%struct.time_node = type { %struct.Curl_llist_node, %struct.curltime, i32 }
%struct.urlpieces = type { ptr, ptr, ptr, ptr, ptr, ptr, ptr, ptr }
%struct.curl_header = type { ptr, ptr, i64, i64, i32, ptr }
%struct.store_netrc = type { %struct.dynbuf, ptr, i8 }
%struct.dynamically_allocated_data = type { ptr, ptr, ptr, ptr, ptr, ptr, ptr, ptr, ptr, ptr, ptr, ptr, ptr, ptr }
%struct.PureInfo = type { i32, i32, i32, i64, i64, i64, i64, i64, i64, i64, ptr, ptr, i64, i32, %struct.ip_quadruple, i32, ptr, i32, %struct.curl_certinfo, i32, i8 }
%struct.curl_certinfo = type { i32, ptr }
%struct.curl_tlssessioninfo = type { i32, ptr }
%struct.pop3_conn = type { %struct.pingpong, i32, i64, i64, %struct.SASL, ptr, i8, i8, i8 }
%struct.SASL = type { ptr, i32, ptr, i16, i16, i16, i8 }

@Curl_DIGEST_MD5 = external constant %struct.MD5_params, align 8
@.str.10 = private unnamed_addr constant [5 x i8] c"%02x\00", align 1
@.str.11 = private unnamed_addr constant [11 x i8] c"APOP %s %s\00", align 1

; Function Attrs: nounwind uwtable
define internal void @pop3_state(ptr noundef %0, i32 noundef %1) #0 {
  %3 = alloca ptr, align 8
  %4 = alloca i32, align 4
  %5 = alloca ptr, align 8
  store ptr %0, ptr %3, align 8, !tbaa !3
  store i32 %1, ptr %4, align 4, !tbaa !10
  call void @llvm.lifetime.start.p0(i64 8, ptr %5) #4
  %6 = load ptr, ptr %3, align 8, !tbaa !3
  %7 = getelementptr inbounds nuw %struct.Curl_easy, ptr %6, i32 0, i32 3
  %8 = load ptr, ptr %7, align 8, !tbaa !19
  %9 = getelementptr inbounds nuw %struct.connectdata, ptr %8, i32 0, i32 43
  store ptr %9, ptr %5, align 8, !tbaa !91
  %10 = load i32, ptr %4, align 4, !tbaa !10
  %11 = load ptr, ptr %5, align 8, !tbaa !91
  %12 = getelementptr inbounds nuw %struct.pop3_conn, ptr %11, i32 0, i32 1
  store i32 %10, ptr %12, align 8, !tbaa !105
  call void @llvm.lifetime.end.p0(i64 8, ptr %5) #4
  ret void
}

; Function Attrs: nounwind uwtable
define internal i32 @pop3_perform_apop(ptr noundef %0, ptr noundef %1) #0 {
  %3 = alloca i32, align 4
  %4 = alloca ptr, align 8
  %5 = alloca ptr, align 8
  %6 = alloca i32, align 4
  %7 = alloca ptr, align 8
  %8 = alloca i64, align 8
  %9 = alloca ptr, align 8
  %10 = alloca [16 x i8], align 16
  %11 = alloca [33 x i8], align 16
  %12 = alloca i32, align 4
  store ptr %0, ptr %4, align 8, !tbaa !3
  store ptr %1, ptr %5, align 8, !tbaa !8
  call void @llvm.lifetime.start.p0(i64 4, ptr %6) #4
  store i32 0, ptr %6, align 4, !tbaa !10
  call void @llvm.lifetime.start.p0(i64 8, ptr %7) #4
  %13 = load ptr, ptr %5, align 8, !tbaa !8
  %14 = getelementptr inbounds nuw %struct.connectdata, ptr %13, i32 0, i32 43
  store ptr %14, ptr %7, align 8, !tbaa !91
  call void @llvm.lifetime.start.p0(i64 8, ptr %8) #4
  call void @llvm.lifetime.start.p0(i64 8, ptr %9) #4
  call void @llvm.lifetime.start.p0(i64 16, ptr %10) #4
  call void @llvm.lifetime.start.p0(i64 33, ptr %11) #4
  %15 = load ptr, ptr %4, align 8, !tbaa !3
  %16 = getelementptr inbounds nuw %struct.Curl_easy, ptr %15, i32 0, i32 21
  %17 = getelementptr inbounds nuw %struct.UrlState, ptr %16, i32 0, i32 52
  %18 = getelementptr inbounds nuw %struct.dynamically_allocated_data, ptr %17, i32 0, i32 9
  %19 = load ptr, ptr %18, align 8, !tbaa !148
  %20 = icmp ne ptr %19, null
  br i1 %20, label %24, label %21

21:                                               ; preds = %2
  %22 = load ptr, ptr %4, align 8, !tbaa !3
  call void @pop3_state(ptr noundef %22, i32 noundef 0)
  %23 = load i32, ptr %6, align 4, !tbaa !10
  store i32 %23, ptr %3, align 4
  store i32 1, ptr %12, align 4
  br label %83

24:                                               ; preds = %2
  %25 = call ptr @Curl_MD5_init(ptr noundef @Curl_DIGEST_MD5)
  store ptr %25, ptr %9, align 8, !tbaa !149
  %26 = load ptr, ptr %9, align 8, !tbaa !149
  %27 = icmp ne ptr %26, null
  br i1 %27, label %29, label %28

28:                                               ; preds = %24
  store i32 27, ptr %3, align 4
  store i32 1, ptr %12, align 4
  br label %83

29:                                               ; preds = %24
  %30 = load ptr, ptr %9, align 8, !tbaa !149
  %31 = load ptr, ptr %7, align 8, !tbaa !91
  %32 = getelementptr inbounds nuw %struct.pop3_conn, ptr %31, i32 0, i32 5
  %33 = load ptr, ptr %32, align 8, !tbaa !109
  %34 = load ptr, ptr %7, align 8, !tbaa !91
  %35 = getelementptr inbounds nuw %struct.pop3_conn, ptr %34, i32 0, i32 5
  %36 = load ptr, ptr %35, align 8, !tbaa !109
  %37 = call i64 @strlen(ptr noundef %36) #5
  %38 = call i32 @curlx_uztoui(i64 noundef %37)
  %39 = call i32 @Curl_MD5_update(ptr noundef %30, ptr noundef %33, i32 noundef %38)
  %40 = load ptr, ptr %9, align 8, !tbaa !149
  %41 = load ptr, ptr %5, align 8, !tbaa !8
  %42 = getelementptr inbounds nuw %struct.connectdata, ptr %41, i32 0, i32 17
  %43 = load ptr, ptr %42, align 8, !tbaa !141
  %44 = load ptr, ptr %5, align 8, !tbaa !8
  %45 = getelementptr inbounds nuw %struct.connectdata, ptr %44, i32 0, i32 17
  %46 = load ptr, ptr %45, align 8, !tbaa !141
  %47 = call i64 @strlen(ptr noundef %46) #5
  %48 = call i32 @curlx_uztoui(i64 noundef %47)
  %49 = call i32 @Curl_MD5_update(ptr noundef %40, ptr noundef %43, i32 noundef %48)
  %50 = load ptr, ptr %9, align 8, !tbaa !149
  %51 = getelementptr inbounds [16 x i8], ptr %10, i64 0, i64 0
  %52 = call i32 @Curl_MD5_final(ptr noundef %50, ptr noundef %51)
  store i64 0, ptr %8, align 8, !tbaa !111
  br label %53

53:                                               ; preds = %65, %29
  %54 = load i64, ptr %8, align 8, !tbaa !111
  %55 = icmp ult i64 %54, 16
  br i1 %55, label %56, label %68

56:                                               ; preds = %53
  %57 = load i64, ptr %8, align 8, !tbaa !111
  %58 = mul i64 2, %57
  %59 = getelementptr inbounds nuw [33 x i8], ptr %11, i64 0, i64 %58
  %60 = load i64, ptr %8, align 8, !tbaa !111
  %61 = getelementptr inbounds nuw [16 x i8], ptr %10, i64 0, i64 %60
  %62 = load i8, ptr %61, align 1, !tbaa !16
  %63 = zext i8 %62 to i32
  %64 = call i32 (ptr, i64, ptr, ...) @curl_msnprintf(ptr noundef %59, i64 noundef 3, ptr noundef @.str.10, i32 noundef %63)
  br label %65

65:                                               ; preds = %56
  %66 = load i64, ptr %8, align 8, !tbaa !111
  %67 = add i64 %66, 1
  store i64 %67, ptr %8, align 8, !tbaa !111
  br label %53, !llvm.loop !151

68:                                               ; preds = %53
  %69 = load ptr, ptr %4, align 8, !tbaa !3
  %70 = load ptr, ptr %7, align 8, !tbaa !91
  %71 = getelementptr inbounds nuw %struct.pop3_conn, ptr %70, i32 0, i32 0
  %72 = load ptr, ptr %5, align 8, !tbaa !8
  %73 = getelementptr inbounds nuw %struct.connectdata, ptr %72, i32 0, i32 16
  %74 = load ptr, ptr %73, align 8, !tbaa !152
  %75 = getelementptr inbounds [33 x i8], ptr %11, i64 0, i64 0
  %76 = call i32 (ptr, ptr, ptr, ...) @Curl_pp_sendf(ptr noundef %69, ptr noundef %71, ptr noundef @.str.11, ptr noundef %74, ptr noundef %75)
  store i32 %76, ptr %6, align 4, !tbaa !10
  %77 = load i32, ptr %6, align 4, !tbaa !10
  %78 = icmp ne i32 %77, 0
  br i1 %78, label %81, label %79

79:                                               ; preds = %68
  %80 = load ptr, ptr %4, align 8, !tbaa !3
  call void @pop3_state(ptr noundef %80, i32 noundef 6)
  br label %81

81:                                               ; preds = %79, %68
  %82 = load i32, ptr %6, align 4, !tbaa !10
  store i32 %82, ptr %3, align 4
  store i32 1, ptr %12, align 4
  br label %83

83:                                               ; preds = %81, %28, %21
  call void @llvm.lifetime.end.p0(i64 33, ptr %11) #4
  call void @llvm.lifetime.end.p0(i64 16, ptr %10) #4
  call void @llvm.lifetime.end.p0(i64 8, ptr %9) #4
  call void @llvm.lifetime.end.p0(i64 8, ptr %8) #4
  call void @llvm.lifetime.end.p0(i64 8, ptr %7) #4
  call void @llvm.lifetime.end.p0(i64 4, ptr %6) #4
  %84 = load i32, ptr %3, align 4
  ret i32 %84
}