; Function Attrs: nounwind uwtable
define internal fastcc i32 @pop3_perform_apop(ptr noundef %0, ptr noundef %1) unnamed_addr #0 {
  %3 = alloca [16 x i8], align 16
  %4 = alloca [33 x i8], align 16
  %5 = getelementptr inbounds nuw i8, ptr %1, i64 1088
  call void @llvm.lifetime.start.p0(i64 16, ptr nonnull %3) #6
  call void @llvm.lifetime.start.p0(i64 33, ptr nonnull %4) #6
  %6 = getelementptr inbounds nuw i8, ptr %0, i64 4992
  %7 = load ptr, ptr %6, align 8, !tbaa !131
  %.not = icmp eq ptr %7, null
  br i1 %.not, label %.sink.split, label %8

8:                                                ; preds = %2
  %9 = tail call ptr @Curl_MD5_init(ptr noundef nonnull @Curl_DIGEST_MD5) #6
  %.not24 = icmp eq ptr %9, null
  br i1 %.not24, label %36, label %10

10:                                               ; preds = %8
  %11 = getelementptr inbounds nuw i8, ptr %1, i64 1304
  %12 = load ptr, ptr %11, align 8, !tbaa !117
  %13 = tail call i64 @strlen(ptr noundef nonnull dereferenceable(1) %12) #7
  %14 = tail call i32 @curlx_uztoui(i64 noundef %13) #6
  %15 = tail call i32 @Curl_MD5_update(ptr noundef nonnull %9, ptr noundef nonnull %12, i32 noundef %14) #6
  %16 = getelementptr inbounds nuw i8, ptr %1, i64 488
  %17 = load ptr, ptr %16, align 8, !tbaa !133
  %18 = tail call i64 @strlen(ptr noundef nonnull dereferenceable(1) %17) #7
  %19 = tail call i32 @curlx_uztoui(i64 noundef %18) #6
  %20 = tail call i32 @Curl_MD5_update(ptr noundef nonnull %9, ptr noundef nonnull %17, i32 noundef %19) #6
  %21 = call i32 @Curl_MD5_final(ptr noundef nonnull %9, ptr noundef nonnull %3) #6
  br label %22

22:                                               ; preds = %10, %22
  %.02227 = phi i64 [ 0, %10 ], [ %29, %22 ]
  %23 = shl nuw nsw i64 %.02227, 1
  %24 = getelementptr inbounds nuw [33 x i8], ptr %4, i64 0, i64 %23
  %25 = getelementptr inbounds nuw [16 x i8], ptr %3, i64 0, i64 %.02227
  %26 = load i8, ptr %25, align 1, !tbaa !7
  %27 = zext i8 %26 to i32
  %28 = call i32 (ptr, i64, ptr, ...) @curl_msnprintf(ptr noundef nonnull %24, i64 noundef 3, ptr noundef nonnull @.str.10, i32 noundef %27) #6
  %29 = add nuw nsw i64 %.02227, 1
  %exitcond.not = icmp eq i64 %29, 16
  br i1 %exitcond.not, label %30, label %22, !llvm.loop !141

30:                                               ; preds = %22
  %31 = getelementptr inbounds nuw i8, ptr %1, i64 480
  %32 = load ptr, ptr %31, align 8, !tbaa !132
  %33 = call i32 (ptr, ptr, ptr, ...) @Curl_pp_sendf(ptr noundef %0, ptr noundef nonnull %5, ptr noundef nonnull @.str.11, ptr noundef %32, ptr noundef nonnull %4) #6
  %.not25 = icmp eq i32 %33, 0
  br i1 %.not25, label %.sink.split, label %36

.sink.split:                                      ; preds = %30, %2
  %.sink = phi i32 [ 0, %2 ], [ 6, %30 ]
  %34 = getelementptr i8, ptr %0, i64 24
  %.val = load ptr, ptr %34, align 8, !tbaa !83
  %35 = getelementptr inbounds nuw i8, ptr %.val, i64 1248
  store i32 %.sink, ptr %35, align 8, !tbaa !86
  br label %36

36:                                               ; preds = %.sink.split, %30, %8
  %.0 = phi i32 [ 27, %8 ], [ %33, %30 ], [ 0, %.sink.split ]
  call void @llvm.lifetime.end.p0(i64 33, ptr nonnull %4) #6
  call void @llvm.lifetime.end.p0(i64 16, ptr nonnull %3) #6
  ret i32 %.0
}